ccopy_reg
_reconstructor
p0
(c__main__
Cache
p1
c__builtin__
object
p2
Ntp3
Rp4
(dp5
S'status'
p6
S'published'
p7
sS'title'
p8
S'The QVD Administration Manual'
p9
sS'url'
p10
S'http://theqvd.com/documentation/the-qvd-administration-manual'
p11
sS'checksum'
p12
S'55e8ea7eca2f3f2e2b5250773932afcc'
p13
sS'created_at'
p14
I1310603405
sS'doctype'
p15
S'book'
p16
sS'updated_at'
p17
I1310633025
sS'post_type'
p18
S'page'
p19
sS'media'
p20
(dp21
S'../images/WAT_telnet_interface.png'
p22
g0
(c__main__
Media
p23
g2
Ntp24
Rp25
(dp26
g10
S'http://theqvd.com/wp-content/uploads/2011/07/WAT_telnet_interface.png'
p27
sg12
S'97a1fbb0150ee1cad2ff2964beeaf4c3'
p28
sS'filename'
p29
S'/home/rowan/Qindel/QVD/src/releases/QVD-3.0.0/doc/asciidoc/../images/WAT_telnet_interface.png'
p30
sbsS'../images/Getting_Started_Guide/architecture1.png'
p31
g0
(g23
g2
Ntp32
Rp33
(dp34
g10
S'http://theqvd.com/wp-content/uploads/2011/07/architecture11.png'
p35
sg12
S'c6106138baa735f1db24699225be20fd'
p36
sg29
S'/home/rowan/Qindel/QVD/src/releases/QVD-3.0.0/doc/asciidoc/../images/Getting_Started_Guide/architecture1.png'
p37
sbsS'../images/WAT_images.png'
p38
g0
(g23
g2
Ntp39
Rp40
(dp41
g10
S'http://theqvd.com/wp-content/uploads/2011/07/WAT_images.png'
p42
sg12
S'fc25bc99e2ca1d035704c0064824a94f'
p43
sg29
S'/home/rowan/Qindel/QVD/src/releases/QVD-3.0.0/doc/asciidoc/../images/WAT_images.png'
p44
sbsS'../images/WAT_newuser.png'
p45
g0
(g23
g2
Ntp46
Rp47
(dp48
g10
S'http://theqvd.com/wp-content/uploads/2011/07/WAT_newuser2.png'
p49
sg12
S'9b2e3c284f9bf93d0929086e8f2ca048'
p50
sg29
S'/home/rowan/Qindel/QVD/src/releases/QVD-3.0.0/doc/asciidoc/../images/WAT_newuser.png'
p51
sbsS'../images/admin_manual/client_server_protocol.png'
p52
g0
(g23
g2
Ntp53
Rp54
(dp55
g10
S'http://theqvd.com/wp-content/uploads/2011/07/client_server_protocol.png'
p56
sg12
S'31a4795d8461e06833b4499e104510fa'
p57
sg29
S'/home/rowan/Qindel/QVD/src/releases/QVD-3.0.0/doc/asciidoc/../images/admin_manual/client_server_protocol.png'
p58
sbsS'../images/WAT_new_button.png'
p59
g0
(g23
g2
Ntp60
Rp61
(dp62
g10
S'http://theqvd.com/wp-content/uploads/2011/07/WAT_new_button.png'
p63
sg12
S'8c0b6a0e65e2237fd85ac0778996e67f'
p64
sg29
S'/home/rowan/Qindel/QVD/src/releases/QVD-3.0.0/doc/asciidoc/../images/WAT_new_button.png'
p65
sbsS'../images/Getting_Started_Guide/architecture2.png'
p66
g0
(g23
g2
Ntp67
Rp68
(dp69
g10
S'http://theqvd.com/wp-content/uploads/2011/07/architecture21.png'
p70
sg12
S'a3256bf6ed208cfd8e0f1512d8e921fd'
p71
sg29
S'/home/rowan/Qindel/QVD/src/releases/QVD-3.0.0/doc/asciidoc/../images/Getting_Started_Guide/architecture2.png'
p72
sbsS'../images/WAT_newuser1.png'
p73
g0
(g23
g2
Ntp74
Rp75
(dp76
g10
S'http://theqvd.com/wp-content/uploads/2011/07/WAT_newuser11.png'
p77
sg12
S'c5ce6ddd4389e2620166e5af118789aa'
p78
sg29
S'/home/rowan/Qindel/QVD/src/releases/QVD-3.0.0/doc/asciidoc/../images/WAT_newuser1.png'
p79
sbsS'../images/WAT_telnet_button.png'
p80
g0
(g23
g2
Ntp81
Rp82
(dp83
g10
S'http://theqvd.com/wp-content/uploads/2011/07/WAT_telnet_button.png'
p84
sg12
S'fbdb8dc5cfbc05f7695dc3d3d44afeca'
p85
sg29
S'/home/rowan/Qindel/QVD/src/releases/QVD-3.0.0/doc/asciidoc/../images/WAT_telnet_button.png'
p86
sbsS'../images/WAT_VM_runtime.png'
p87
g0
(g23
g2
Ntp88
Rp89
(dp90
g10
S'http://theqvd.com/wp-content/uploads/2011/07/WAT_VM_runtime.png'
p91
sg12
S'40eee57aaec229c4d65f572db21f1464'
p92
sg29
S'/home/rowan/Qindel/QVD/src/releases/QVD-3.0.0/doc/asciidoc/../images/WAT_VM_runtime.png'
p93
sbsS'../images/WAT_vm_page.png'
p94
g0
(g23
g2
Ntp95
Rp96
(dp97
g10
S'http://theqvd.com/wp-content/uploads/2011/07/WAT_vm_page.png'
p98
sg12
S'3c27fa7675e890f2633a3c4bde2a6c45'
p99
sg29
S'/home/rowan/Qindel/QVD/src/releases/QVD-3.0.0/doc/asciidoc/../images/WAT_vm_page.png'
p100
sbsS'../images/WAT_users.png'
p101
g0
(g23
g2
Ntp102
Rp103
(dp104
g10
S'http://theqvd.com/wp-content/uploads/2011/07/WAT_users.png'
p105
sg12
S'25496fad7c178aca13ff7aea23029d7d'
p106
sg29
S'/home/rowan/Qindel/QVD/src/releases/QVD-3.0.0/doc/asciidoc/../images/WAT_users.png'
p107
sbsS'../images/qvd-desktop-gnome.png'
p108
g0
(g23
g2
Ntp109
Rp110
(dp111
g10
S'http://theqvd.com/wp-content/uploads/2011/07/qvd-desktop-gnome1.png'
p112
sg12
S'e11cec49f692dfabab16dd96f42e906a'
p113
sg29
S'/home/rowan/Qindel/QVD/src/releases/QVD-3.0.0/doc/asciidoc/../images/qvd-desktop-gnome.png'
p114
sbsS'../images/WAT_newnode.png'
p115
g0
(g23
g2
Ntp116
Rp117
(dp118
g10
S'http://theqvd.com/wp-content/uploads/2011/07/WAT_newnode2.png'
p119
sg12
S'4261d9352b5d6f07a18cb72d04c60b2e'
p120
sg29
S'/home/rowan/Qindel/QVD/src/releases/QVD-3.0.0/doc/asciidoc/../images/WAT_newnode.png'
p121
sbsS'../images/WAT_nodes.png'
p122
g0
(g23
g2
Ntp123
Rp124
(dp125
g10
S'http://theqvd.com/wp-content/uploads/2011/07/WAT_nodes.png'
p126
sg12
S'96ba2f9a0cc347496529e56de757a8f2'
p127
sg29
S'/home/rowan/Qindel/QVD/src/releases/QVD-3.0.0/doc/asciidoc/../images/WAT_nodes.png'
p128
sbsS'../images/WAT_dashboard.png'
p129
g0
(g23
g2
Ntp130
Rp131
(dp132
g10
S'http://theqvd.com/wp-content/uploads/2011/07/WAT_dashboard.png'
p133
sg12
S'78116d2b29257a07ffcc69d7de3830eb'
p134
sg29
S'/home/rowan/Qindel/QVD/src/releases/QVD-3.0.0/doc/asciidoc/../images/WAT_dashboard.png'
p135
sbsS'../images/GUI_login.png'
p136
g0
(g23
g2
Ntp137
Rp138
(dp139
g10
S'http://theqvd.com/wp-content/uploads/2011/07/GUI_login1.png'
p140
sg12
S'334cee59ed6634a45e2162da42700dbd'
p141
sg29
S'/home/rowan/Qindel/QVD/src/releases/QVD-3.0.0/doc/asciidoc/../images/GUI_login.png'
p142
sbsS'../images/WAT_edit_button.png'
p143
g0
(g23
g2
Ntp144
Rp145
(dp146
g10
S'http://theqvd.com/wp-content/uploads/2011/07/WAT_edit_button.png'
p147
sg12
S'b8abd1474104753ce77601a7e9f92a1b'
p148
sg29
S'/home/rowan/Qindel/QVD/src/releases/QVD-3.0.0/doc/asciidoc/../images/WAT_edit_button.png'
p149
sbsS'../images/WAT_user_profile.png'
p150
g0
(g23
g2
Ntp151
Rp152
(dp153
g10
S'http://theqvd.com/wp-content/uploads/2011/07/WAT_user_profile.png'
p154
sg12
S'8cf1d3bdcec9d22145eaee8c71ff3473'
p155
sg29
S'/home/rowan/Qindel/QVD/src/releases/QVD-3.0.0/doc/asciidoc/../images/WAT_user_profile.png'
p156
sbsS'../images/WAT_newvm_gsg.png'
p157
g0
(g23
g2
Ntp158
Rp159
(dp160
g10
S'http://theqvd.com/wp-content/uploads/2011/07/WAT_newvm_gsg1.png'
p161
sg12
S'79900e09933bde81da1bc7b101002a68'
p162
sg29
S'/home/rowan/Qindel/QVD/src/releases/QVD-3.0.0/doc/asciidoc/../images/WAT_newvm_gsg.png'
p163
sbsS'../images/Windows_ClientInstaller1.png'
p164
g0
(g23
g2
Ntp165
Rp166
(dp167
g10
S'http://theqvd.com/wp-content/uploads/2011/07/Windows_ClientInstaller11.png'
p168
sg12
S'90cd1d152316d499c5844edd548f5ee8'
p169
sg29
S'/home/rowan/Qindel/QVD/src/releases/QVD-3.0.0/doc/asciidoc/../images/Windows_ClientInstaller1.png'
p170
sbsS'../images/WAT_newimage.png'
p171
g0
(g23
g2
Ntp172
Rp173
(dp174
g10
S'http://theqvd.com/wp-content/uploads/2011/07/WAT_newimage2.png'
p175
sg12
S'ce83e6f8709782aea779e82f2f3265e8'
p176
sg29
S'/home/rowan/Qindel/QVD/src/releases/QVD-3.0.0/doc/asciidoc/../images/WAT_newimage.png'
p177
sbsS'../images/WAT_view_button.png'
p178
g0
(g23
g2
Ntp179
Rp180
(dp181
g10
S'http://theqvd.com/wp-content/uploads/2011/07/WAT_view_button.png'
p182
sg12
S'47aabe179e3974cc74a883bb355192b8'
p183
sg29
S'/home/rowan/Qindel/QVD/src/releases/QVD-3.0.0/doc/asciidoc/../images/WAT_view_button.png'
p184
sbsS'../images/WAT_login.png'
p185
g0
(g23
g2
Ntp186
Rp187
(dp188
g10
S'http://theqvd.com/wp-content/uploads/2011/07/WAT_login.png'
p189
sg12
S'dd4faa4054f2dbacb12fe94d5acef541'
p190
sg29
S'/home/rowan/Qindel/QVD/src/releases/QVD-3.0.0/doc/asciidoc/../images/WAT_login.png'
p191
sbsS'../images/WAT_change_password_button.png'
p192
g0
(g23
g2
Ntp193
Rp194
(dp195
g10
S'http://theqvd.com/wp-content/uploads/2011/07/WAT_change_password_button.png'
p196
sg12
S'295e887f2d7d7359fc6a860d3c667594'
p197
sg29
S'/home/rowan/Qindel/QVD/src/releases/QVD-3.0.0/doc/asciidoc/../images/WAT_change_password_button.png'
p198
sbsS'../images/WAT_VM_runtime_edit.png'
p199
g0
(g23
g2
Ntp200
Rp201
(dp202
g10
S'http://theqvd.com/wp-content/uploads/2011/07/WAT_VM_runtime_edit.png'
p203
sg12
S'2b014f547e2244fdcca944fa5fd891ea'
p204
sg29
S'/home/rowan/Qindel/QVD/src/releases/QVD-3.0.0/doc/asciidoc/../images/WAT_VM_runtime_edit.png'
p205
sbsS'../images/Windows_Client.png'
p206
g0
(g23
g2
Ntp207
Rp208
(dp209
g10
S'http://theqvd.com/wp-content/uploads/2011/07/Windows_Client1.png'
p210
sg12
S'1356b78ac274b07bed7cd3f52f340391'
p211
sg29
S'/home/rowan/Qindel/QVD/src/releases/QVD-3.0.0/doc/asciidoc/../images/Windows_Client.png'
p212
sbsS'../images/admin_manual/data-model.png'
p213
g0
(g23
g2
Ntp214
Rp215
(dp216
g10
S'http://theqvd.com/wp-content/uploads/2011/07/data-model.png'
p217
sg12
S'364e4ebd41688770da487c73a945f56e'
p218
sg29
S'/home/rowan/Qindel/QVD/src/releases/QVD-3.0.0/doc/asciidoc/../images/admin_manual/data-model.png'
p219
sbsS'../images/WAT_newvm_button.png'
p220
g0
(g23
g2
Ntp221
Rp222
(dp223
g10
S'http://theqvd.com/wp-content/uploads/2011/07/WAT_newvm_button.png'
p224
sg12
S'6f419a841a67cafbeae0b6d5ec00c16e'
p225
sg29
S'/home/rowan/Qindel/QVD/src/releases/QVD-3.0.0/doc/asciidoc/../images/WAT_newvm_button.png'
p226
sbssS'id'
p227
I710
sS'categories'
p228
(lp229
S'doc'
p230
asb.