ccopy_reg
_reconstructor
p0
(c__main__
Cache
p1
c__builtin__
object
p2
Ntp3
Rp4
(dp5
S'status'
p6
S'published'
p7
sS'title'
p8
S'Getting Started with QVD'
p9
sS'url'
p10
S'http://theqvd.com/documentacion/getting-started-with-qvd'
p11
sS'checksum'
p12
S'6d78706602776e7691e7ae60bd53b686'
p13
sS'created_at'
p14
I1310595993
sS'doctype'
p15
S'book'
p16
sS'updated_at'
p17
I1310633206
sS'post_type'
p18
S'page'
p19
sS'media'
p20
(dp21
S'../images/WAT_newvm1_gsg.png'
p22
g0
(c__main__
Media
p23
g2
Ntp24
Rp25
(dp26
g10
S'http://theqvd.com/wp-content/uploads/2011/07/WAT_newvm1_gsg.png'
p27
sg12
S'51a951c3154174f021f8358d0cd7ec6f'
p28
sS'filename'
p29
S'/home/rowan/Qindel/QVD/src/releases/QVD-3.0.0/doc/asciidoc/../images/WAT_newvm1_gsg.png'
p30
sbsS'../images/WAT_newimage1.png'
p31
g0
(g23
g2
Ntp32
Rp33
(dp34
g10
S'http://theqvd.com/wp-content/uploads/2011/07/WAT_newimage1.png'
p35
sg12
S'84df3a2229a4b4ddbaa8a2b6af280242'
p36
sg29
S'/home/rowan/Qindel/QVD/src/releases/QVD-3.0.0/doc/asciidoc/../images/WAT_newimage1.png'
p37
sbsS'../images/WAT_newnode.png'
p38
g0
(g23
g2
Ntp39
Rp40
(dp41
g10
S'http://theqvd.com/wp-content/uploads/2011/07/WAT_newnode.png'
p42
sg12
S'4261d9352b5d6f07a18cb72d04c60b2e'
p43
sg29
S'/home/rowan/Qindel/QVD/src/releases/QVD-3.0.0/doc/asciidoc/../images/WAT_newnode.png'
p44
sbsS'../images/WAT_newimage.png'
p45
g0
(g23
g2
Ntp46
Rp47
(dp48
g10
S'http://theqvd.com/wp-content/uploads/2011/07/WAT_newimage.png'
p49
sg12
S'ce83e6f8709782aea779e82f2f3265e8'
p50
sg29
S'/home/rowan/Qindel/QVD/src/releases/QVD-3.0.0/doc/asciidoc/../images/WAT_newimage.png'
p51
sbsS'../images/WAT_newvmlink_gsg.png'
p52
g0
(g23
g2
Ntp53
Rp54
(dp55
g10
S'http://theqvd.com/wp-content/uploads/2011/07/WAT_newvmlink_gsg.png'
p56
sg12
S'2df98d4607e2009b2154fbb756cc00c4'
p57
sg29
S'/home/rowan/Qindel/QVD/src/releases/QVD-3.0.0/doc/asciidoc/../images/WAT_newvmlink_gsg.png'
p58
sbsS'../images/Getting_Started_Guide/architecture2.png'
p59
g0
(g23
g2
Ntp60
Rp61
(dp62
g10
S'http://theqvd.com/wp-content/uploads/2011/07/architecture2.png'
p63
sg12
S'a3256bf6ed208cfd8e0f1512d8e921fd'
p64
sg29
S'/home/rowan/Qindel/QVD/src/releases/QVD-3.0.0/doc/asciidoc/../images/Getting_Started_Guide/architecture2.png'
p65
sbsS'../images/Getting_Started_Guide/architecture1.png'
p66
g0
(g23
g2
Ntp67
Rp68
(dp69
g10
S'http://theqvd.com/wp-content/uploads/2011/07/architecture1.png'
p70
sg12
S'c6106138baa735f1db24699225be20fd'
p71
sg29
S'/home/rowan/Qindel/QVD/src/releases/QVD-3.0.0/doc/asciidoc/../images/Getting_Started_Guide/architecture1.png'
p72
sbsS'../images/WAT_edituser_gsg.png'
p73
g0
(g23
g2
Ntp74
Rp75
(dp76
g10
S'http://theqvd.com/wp-content/uploads/2011/07/WAT_edituser_gsg.png'
p77
sg12
S'4d7e173551495627bf9a35110686c09d'
p78
sg29
S'/home/rowan/Qindel/QVD/src/releases/QVD-3.0.0/doc/asciidoc/../images/WAT_edituser_gsg.png'
p79
sbsS'../images/WAT_newuser.png'
p80
g0
(g23
g2
Ntp81
Rp82
(dp83
g10
S'http://theqvd.com/wp-content/uploads/2011/07/WAT_newuser.png'
p84
sg12
S'9b2e3c284f9bf93d0929086e8f2ca048'
p85
sg29
S'/home/rowan/Qindel/QVD/src/releases/QVD-3.0.0/doc/asciidoc/../images/WAT_newuser.png'
p86
sbsS'../images/WAT_newnode1.png'
p87
g0
(g23
g2
Ntp88
Rp89
(dp90
g10
S'http://theqvd.com/wp-content/uploads/2011/07/WAT_newnode1.png'
p91
sg12
S'467dffdf5c563b72699d2d7889d87679'
p92
sg29
S'/home/rowan/Qindel/QVD/src/releases/QVD-3.0.0/doc/asciidoc/../images/WAT_newnode1.png'
p93
sbsS'../images/GUI_login.png'
p94
g0
(g23
g2
Ntp95
Rp96
(dp97
g10
S'http://theqvd.com/wp-content/uploads/2011/07/GUI_login.png'
p98
sg12
S'334cee59ed6634a45e2162da42700dbd'
p99
sg29
S'/home/rowan/Qindel/QVD/src/releases/QVD-3.0.0/doc/asciidoc/../images/GUI_login.png'
p100
sbsS'../images/Windows_Client.png'
p101
g0
(g23
g2
Ntp102
Rp103
(dp104
g10
S'http://theqvd.com/wp-content/uploads/2011/07/Windows_Client.png'
p105
sg12
S'1356b78ac274b07bed7cd3f52f340391'
p106
sg29
S'/home/rowan/Qindel/QVD/src/releases/QVD-3.0.0/doc/asciidoc/../images/Windows_Client.png'
p107
sbsS'../images/WAT_newuseradded_gsg.png'
p108
g0
(g23
g2
Ntp109
Rp110
(dp111
g10
S'http://theqvd.com/wp-content/uploads/2011/07/WAT_newuseradded_gsg.png'
p112
sg12
S'3a44427615dc6261a64936e13a387691'
p113
sg29
S'/home/rowan/Qindel/QVD/src/releases/QVD-3.0.0/doc/asciidoc/../images/WAT_newuseradded_gsg.png'
p114
sbsS'../images/WAT_newvm2_gsg.png'
p115
g0
(g23
g2
Ntp116
Rp117
(dp118
g10
S'http://theqvd.com/wp-content/uploads/2011/07/WAT_newvm2_gsg.png'
p119
sg12
S'b7d38d64caa1c883a0aba19930ef67cc'
p120
sg29
S'/home/rowan/Qindel/QVD/src/releases/QVD-3.0.0/doc/asciidoc/../images/WAT_newvm2_gsg.png'
p121
sbsS'../images/Windows_ClientInstaller1.png'
p122
g0
(g23
g2
Ntp123
Rp124
(dp125
g10
S'http://theqvd.com/wp-content/uploads/2011/07/Windows_ClientInstaller1.png'
p126
sg12
S'90cd1d152316d499c5844edd548f5ee8'
p127
sg29
S'/home/rowan/Qindel/QVD/src/releases/QVD-3.0.0/doc/asciidoc/../images/Windows_ClientInstaller1.png'
p128
sbsS'../images/WAT_newvm_gsg.png'
p129
g0
(g23
g2
Ntp130
Rp131
(dp132
g10
S'http://theqvd.com/wp-content/uploads/2011/07/WAT_newvm_gsg.png'
p133
sg12
S'79900e09933bde81da1bc7b101002a68'
p134
sg29
S'/home/rowan/Qindel/QVD/src/releases/QVD-3.0.0/doc/asciidoc/../images/WAT_newvm_gsg.png'
p135
sbsS'../images/WAT_newuser1.png'
p136
g0
(g23
g2
Ntp137
Rp138
(dp139
g10
S'http://theqvd.com/wp-content/uploads/2011/07/WAT_newuser1.png'
p140
sg12
S'c5ce6ddd4389e2620166e5af118789aa'
p141
sg29
S'/home/rowan/Qindel/QVD/src/releases/QVD-3.0.0/doc/asciidoc/../images/WAT_newuser1.png'
p142
sbsS'../images/qvd-desktop-gnome.png'
p143
g0
(g23
g2
Ntp144
Rp145
(dp146
g10
S'http://theqvd.com/wp-content/uploads/2011/07/qvd-desktop-gnome.png'
p147
sg12
S'e11cec49f692dfabab16dd96f42e906a'
p148
sg29
S'/home/rowan/Qindel/QVD/src/releases/QVD-3.0.0/doc/asciidoc/../images/qvd-desktop-gnome.png'
p149
sbssS'id'
p150
I679
sS'categories'
p151
(lp152
S'doc'
p153
asb.